target datalayout = "e-m:e-p270:32:32-p271:32:32-p272:64:64-i64:64-i128:128-f80:128-n8:16:32:64-S128"
target triple = "x86_64-pc-linux-gnu"

%struct.nameData = type { [64 x i8] }
%struct.RelationData = type { %struct.RelFileLocator, ptr, i32, i32, i8, i8, i8, i8, i8, i32, i32, i32, i32, ptr, ptr, i32, %struct.LockInfoData, ptr, ptr, ptr, ptr, ptr, i8, ptr, ptr, ptr, ptr, ptr, ptr, i32, ptr, i8, ptr, ptr, i32, i8, i32, ptr, i8, ptr, ptr, ptr, ptr, ptr, ptr, ptr, i32, ptr, ptr, ptr, ptr, ptr, ptr, ptr, ptr, ptr, ptr, ptr, ptr, ptr, ptr, ptr, ptr, ptr, ptr, ptr, i32, i8, ptr }
%struct.RelFileLocator = type { i32, i32, i32 }
%struct.LockInfoData = type { %struct.LockRelId }
%struct.LockRelId = type { i32, i32 }
%struct.FormData_pg_class = type { i32, %struct.nameData, i32, i32, i32, i32, i32, i32, i32, i32, float, i32, i32, i8, i8, i8, i8, i16, i16, i8, i8, i8, i8, i8, i8, i8, i8, i32, i32, i32 }
%struct.HeapTupleData = type { i32, %struct.ItemPointerData, i32, ptr }
%struct.ItemPointerData = type { %struct.BlockIdData, i16 }
%struct.BlockIdData = type { i16, i16 }
%struct.HeapTupleHeaderData = type { %union.anon, %struct.ItemPointerData, i16, i16, i8, [0 x i8] }
%union.anon = type { %struct.HeapTupleFields }
%struct.HeapTupleFields = type { i32, i32, %union.anon.0 }
%union.anon.0 = type { i32 }

@.str.2 = private unnamed_addr constant [12 x i8] c"tablecmds.c\00", align 1
@.str.23 = private unnamed_addr constant [36 x i8] c"cache lookup failed for relation %u\00", align 1
@__func__.RenameRelationInternal = private unnamed_addr constant [23 x i8] c"RenameRelationInternal\00", align 1
@.str.28 = private unnamed_addr constant [29 x i8] c"relation \22%s\22 already exists\00", align 1
@object_access_hook = external global ptr, align 8

; Function Attrs: inlinehint nounwind uwtable
define internal ptr @GETSTRUCT(ptr noundef %0) #6 {
  %2 = alloca ptr, align 8
  store ptr %0, ptr %2, align 8
  %3 = load ptr, ptr %2, align 8
  %4 = getelementptr inbounds nuw %struct.HeapTupleData, ptr %3, i32 0, i32 3
  %5 = load ptr, ptr %4, align 8
  %6 = load ptr, ptr %2, align 8
  %7 = getelementptr inbounds nuw %struct.HeapTupleData, ptr %6, i32 0, i32 3
  %8 = load ptr, ptr %7, align 8
  %9 = getelementptr inbounds nuw %struct.HeapTupleHeaderData, ptr %8, i32 0, i32 4
  %10 = load i8, ptr %9, align 2
  %11 = zext i8 %10 to i32
  %12 = sext i32 %11 to i64
  %13 = getelementptr inbounds i8, ptr %5, i64 %12
  ret ptr %13
}

; Function Attrs: inlinehint nounwind uwtable
define internal i64 @ObjectIdGetDatum(i32 noundef %0) #6 {
  %2 = alloca i32, align 4
  store i32 %0, ptr %2, align 4
  %3 = load i32, ptr %2, align 4
  %4 = zext i32 %3 to i64
  ret i64 %4
}

; Function Attrs: nounwind uwtable
define dso_local void @RenameRelationInternal(i32 noundef %0, ptr noundef %1, i1 noundef zeroext %2, i1 noundef zeroext %3) #0 {
  %5 = alloca i32, align 4
  %6 = alloca ptr, align 8
  %7 = alloca i8, align 1
  %8 = alloca i8, align 1
  %9 = alloca ptr, align 8
  %10 = alloca ptr, align 8
  %11 = alloca %struct.ItemPointerData, align 2
  %12 = alloca ptr, align 8
  %13 = alloca ptr, align 8
  %14 = alloca i32, align 4
  %15 = alloca i32, align 4
  store i32 %0, ptr %5, align 4
  store ptr %1, ptr %6, align 8
  %16 = zext i1 %2 to i8
  store i8 %16, ptr %7, align 1
  %17 = zext i1 %3 to i8
  store i8 %17, ptr %8, align 1
  call void @llvm.lifetime.start.p0(i64 8, ptr %9) #12
  call void @llvm.lifetime.start.p0(i64 8, ptr %10) #12
  call void @llvm.lifetime.start.p0(i64 6, ptr %11) #12
  call void @llvm.lifetime.start.p0(i64 8, ptr %12) #12
  call void @llvm.lifetime.start.p0(i64 8, ptr %13) #12
  call void @llvm.lifetime.start.p0(i64 4, ptr %14) #12
  %18 = load i32, ptr %5, align 4
  %19 = load i8, ptr %8, align 1, !range !6, !noundef !7
  %20 = trunc i8 %19 to i1
  %21 = select i1 %20, i32 4, i32 8
  %22 = call ptr @relation_open(i32 noundef %18, i32 noundef %21)
  store ptr %22, ptr %9, align 8
  %23 = load ptr, ptr %9, align 8
  %24 = getelementptr inbounds nuw %struct.RelationData, ptr %23, i32 0, i32 13
  %25 = load ptr, ptr %24, align 8
  %26 = getelementptr inbounds nuw %struct.FormData_pg_class, ptr %25, i32 0, i32 2
  %27 = load i32, ptr %26, align 4
  store i32 %27, ptr %14, align 4
  %28 = call ptr @table_open(i32 noundef 1259, i32 noundef 3)
  store ptr %28, ptr %10, align 8
  %29 = load i32, ptr %5, align 4
  %30 = call i64 @ObjectIdGetDatum(i32 noundef %29)
  %31 = call ptr @SearchSysCacheLockedCopy1(i32 noundef 57, i64 noundef %30)
  store ptr %31, ptr %12, align 8
  %32 = load ptr, ptr %12, align 8
  %33 = icmp ne ptr %32, null
  br i1 %33, label %46, label %34

34:                                               ; preds = %4
  br label %35

35:                                               ; preds = %34
  br i1 true, label %36, label %38

36:                                               ; preds = %35
  %37 = call zeroext i1 @errstart_cold(i32 noundef 21, ptr noundef null) #13
  br i1 %37, label %40, label %43

38:                                               ; preds = %35
  %39 = call zeroext i1 @errstart(i32 noundef 21, ptr noundef null)
  br i1 %39, label %40, label %43

40:                                               ; preds = %38, %36
  %41 = load i32, ptr %5, align 4
  %42 = call i32 (ptr, ...) @errmsg_internal(ptr noundef @.str.23, i32 noundef %41)
  call void @errfinish(ptr noundef @.str.2, i32 noundef 4262, ptr noundef @__func__.RenameRelationInternal)
  br label %43

43:                                               ; preds = %40, %38, %36
  unreachable

44:                                               ; No predecessors!
  br label %45

45:                                               ; preds = %44
  br label %46

46:                                               ; preds = %45, %4
  %47 = load ptr, ptr %12, align 8
  %48 = getelementptr inbounds nuw %struct.HeapTupleData, ptr %47, i32 0, i32 1
  call void @llvm.memcpy.p0.p0.i64(ptr align 2 %11, ptr align 4 %48, i64 6, i1 false)
  %49 = load ptr, ptr %12, align 8
  %50 = call ptr @GETSTRUCT(ptr noundef %49)
  store ptr %50, ptr %13, align 8
  %51 = load ptr, ptr %6, align 8
  %52 = load i32, ptr %14, align 4
  %53 = call i32 @get_relname_relid(ptr noundef %51, i32 noundef %52)
  %54 = icmp ne i32 %53, 0
  br i1 %54, label %55, label %68

55:                                               ; preds = %46
  br label %56

56:                                               ; preds = %55
  br i1 true, label %57, label %59

57:                                               ; preds = %56
  %58 = call zeroext i1 @errstart_cold(i32 noundef 21, ptr noundef null) #13
  br i1 %58, label %61, label %65

59:                                               ; preds = %56
  %60 = call zeroext i1 @errstart(i32 noundef 21, ptr noundef null)
  br i1 %60, label %61, label %65

61:                                               ; preds = %59, %57
  %62 = call i32 @errcode(i32 noundef 117571716)
  %63 = load ptr, ptr %6, align 8
  %64 = call i32 (ptr, ...) @errmsg(ptr noundef @.str.28, ptr noundef %63)
  call void @errfinish(ptr noundef @.str.2, i32 noundef 4270, ptr noundef @__func__.RenameRelationInternal)
  br label %65

65:                                               ; preds = %61, %59, %57
  unreachable

66:                                               ; No predecessors!
  br label %67

67:                                               ; preds = %66
  br label %68

68:                                               ; preds = %67, %46
  %69 = load ptr, ptr %13, align 8
  %70 = getelementptr inbounds nuw %struct.FormData_pg_class, ptr %69, i32 0, i32 1
  %71 = load ptr, ptr %6, align 8
  call void @namestrcpy(ptr noundef %70, ptr noundef %71)
  %72 = load ptr, ptr %10, align 8
  %73 = load ptr, ptr %12, align 8
  call void @CatalogTupleUpdate(ptr noundef %72, ptr noundef %11, ptr noundef %73)
  %74 = load ptr, ptr %10, align 8
  call void @UnlockTuple(ptr noundef %74, ptr noundef %11, i32 noundef 7)
  br label %75

75:                                               ; preds = %68
  %76 = load ptr, ptr @object_access_hook, align 8
  %77 = icmp ne ptr %76, null
  br i1 %77, label %78, label %82

78:                                               ; preds = %75
  %79 = load i32, ptr %5, align 4
  %80 = load i8, ptr %7, align 1, !range !6, !noundef !7
  %81 = trunc i8 %80 to i1
  call void @RunObjectPostAlterHook(i32 noundef 1259, i32 noundef %79, i32 noundef 0, i32 noundef 0, i1 noundef zeroext %81)
  br label %82

82:                                               ; preds = %78, %75
  br label %83

83:                                               ; preds = %82
  br label %84

84:                                               ; preds = %83
  %85 = load ptr, ptr %12, align 8
  call void @heap_freetuple(ptr noundef %85)
  %86 = load ptr, ptr %10, align 8
  call void @table_close(ptr noundef %86, i32 noundef 3)
  %87 = load ptr, ptr %9, align 8
  %88 = getelementptr inbounds nuw %struct.RelationData, ptr %87, i32 0, i32 13
  %89 = load ptr, ptr %88, align 8
  %90 = getelementptr inbounds nuw %struct.FormData_pg_class, ptr %89, i32 0, i32 3
  %91 = load i32, ptr %90, align 4
  %92 = icmp ne i32 %91, 0
  br i1 %92, label %93, label %101

93:                                               ; preds = %84
  %94 = load ptr, ptr %9, align 8
  %95 = getelementptr inbounds nuw %struct.RelationData, ptr %94, i32 0, i32 13
  %96 = load ptr, ptr %95, align 8
  %97 = getelementptr inbounds nuw %struct.FormData_pg_class, ptr %96, i32 0, i32 3
  %98 = load i32, ptr %97, align 4
  %99 = load ptr, ptr %6, align 8
  %100 = load i32, ptr %14, align 4
  call void @RenameTypeInternal(i32 noundef %98, ptr noundef %99, i32 noundef %100)
  br label %101

101:                                              ; preds = %93, %84
  %102 = load ptr, ptr %9, align 8
  %103 = getelementptr inbounds nuw %struct.RelationData, ptr %102, i32 0, i32 13
  %104 = load ptr, ptr %103, align 8
  %105 = getelementptr inbounds nuw %struct.FormData_pg_class, ptr %104, i32 0, i32 16
  %106 = load i8, ptr %105, align 1
  %107 = sext i8 %106 to i32
  %108 = icmp eq i32 %107, 105
  br i1 %108, label %117, label %109

109:                                              ; preds = %101
  %110 = load ptr, ptr %9, align 8
  %111 = getelementptr inbounds nuw %struct.RelationData, ptr %110, i32 0, i32 13
  %112 = load ptr, ptr %111, align 8
  %113 = getelementptr inbounds nuw %struct.FormData_pg_class, ptr %112, i32 0, i32 16
  %114 = load i8, ptr %113, align 1
  %115 = sext i8 %114 to i32
  %116 = icmp eq i32 %115, 73
  br i1 %116, label %117, label %126

117:                                              ; preds = %109, %101
  call void @llvm.lifetime.start.p0(i64 4, ptr %15) #12
  %118 = load i32, ptr %5, align 4
  %119 = call i32 @get_index_constraint(i32 noundef %118)
  store i32 %119, ptr %15, align 4
  %120 = load i32, ptr %15, align 4
  %121 = icmp ne i32 %120, 0
  br i1 %121, label %122, label %125

122:                                              ; preds = %117
  %123 = load i32, ptr %15, align 4
  %124 = load ptr, ptr %6, align 8
  call void @RenameConstraintById(i32 noundef %123, ptr noundef %124)
  br label %125

125:                                              ; preds = %122, %117
  call void @llvm.lifetime.end.p0(i64 4, ptr %15) #12
  br label %126

126:                                              ; preds = %125, %109
  %127 = load ptr, ptr %9, align 8
  call void @relation_close(ptr noundef %127, i32 noundef 0)
  call void @llvm.lifetime.end.p0(i64 4, ptr %14) #12
  call void @llvm.lifetime.end.p0(i64 8, ptr %13) #12
  call void @llvm.lifetime.end.p0(i64 8, ptr %12) #12
  call void @llvm.lifetime.end.p0(i64 6, ptr %11) #12
  call void @llvm.lifetime.end.p0(i64 8, ptr %10) #12
  call void @llvm.lifetime.end.p0(i64 8, ptr %9) #12
  ret void
}