; Function Attrs: nounwind uwtable
define dso_local void @RenameRelationInternal(i32 noundef %0, ptr noundef %1, i1 noundef zeroext %2, i1 noundef zeroext %3) local_unnamed_addr #0 {
  %5 = alloca %struct.ItemPointerData, align 2
  call void @llvm.lifetime.start.p0(i64 6, ptr nonnull %5) #15
  %6 = select i1 %3, i32 4, i32 8
  %7 = tail call ptr @relation_open(i32 noundef %0, i32 noundef %6) #15
  %8 = getelementptr inbounds nuw i8, ptr %7, i64 56
  %9 = load ptr, ptr %8, align 8
  %10 = getelementptr inbounds nuw i8, ptr %9, i64 68
  %11 = load i32, ptr %10, align 4
  %12 = tail call ptr @table_open(i32 noundef 1259, i32 noundef 3) #15
  %13 = zext i32 %0 to i64
  %14 = tail call ptr @SearchSysCacheLockedCopy1(i32 noundef 57, i64 noundef %13) #15
  %.not = icmp eq ptr %14, null
  br i1 %.not, label %15, label %18

15:                                               ; preds = %4
  %16 = tail call zeroext i1 @errstart_cold(i32 noundef 21, ptr noundef null) #16
  tail call void @llvm.assume(i1 %16)
  %17 = tail call i32 (ptr, ...) @errmsg_internal(ptr noundef nonnull @.str.23, i32 noundef %0) #15
  tail call void @errfinish(ptr noundef nonnull @.str.2, i32 noundef 4262, ptr noundef nonnull @__func__.RenameRelationInternal) #15
  unreachable

18:                                               ; preds = %4
  %19 = getelementptr inbounds nuw i8, ptr %14, i64 4
  call void @llvm.memcpy.p0.p0.i64(ptr noundef nonnull align 2 dereferenceable(6) %5, ptr noundef nonnull align 4 dereferenceable(6) %19, i64 6, i1 false)
  %20 = getelementptr i8, ptr %14, i64 16
  %.val = load ptr, ptr %20, align 8
  %21 = getelementptr inbounds nuw i8, ptr %.val, i64 22
  %22 = load i8, ptr %21, align 2
  %23 = tail call i32 @get_relname_relid(ptr noundef %1, i32 noundef %11) #15
  %.not33 = icmp eq i32 %23, 0
  br i1 %.not33, label %28, label %24

24:                                               ; preds = %18
  %25 = tail call zeroext i1 @errstart_cold(i32 noundef 21, ptr noundef null) #16
  tail call void @llvm.assume(i1 %25)
  %26 = tail call i32 @errcode(i32 noundef 117571716) #15
  %27 = tail call i32 (ptr, ...) @errmsg(ptr noundef nonnull @.str.28, ptr noundef %1) #15
  tail call void @errfinish(ptr noundef nonnull @.str.2, i32 noundef 4270, ptr noundef nonnull @__func__.RenameRelationInternal) #15
  unreachable

28:                                               ; preds = %18
  %29 = zext i8 %22 to i64
  %30 = getelementptr inbounds nuw i8, ptr %.val, i64 %29
  %31 = getelementptr inbounds nuw i8, ptr %30, i64 4
  tail call void @namestrcpy(ptr noundef nonnull %31, ptr noundef %1) #15
  call void @CatalogTupleUpdate(ptr noundef %12, ptr noundef nonnull %5, ptr noundef nonnull %14) #15
  call void @UnlockTuple(ptr noundef %12, ptr noundef nonnull %5, i32 noundef 7) #15
  %32 = load ptr, ptr @object_access_hook, align 8
  %.not34 = icmp eq ptr %32, null
  br i1 %.not34, label %34, label %33

33:                                               ; preds = %28
  call void @RunObjectPostAlterHook(i32 noundef 1259, i32 noundef %0, i32 noundef 0, i32 noundef 0, i1 noundef zeroext %2) #15
  br label %34

34:                                               ; preds = %33, %28
  call void @heap_freetuple(ptr noundef nonnull %14) #15
  call void @table_close(ptr noundef %12, i32 noundef 3) #15
  %35 = load ptr, ptr %8, align 8
  %36 = getelementptr inbounds nuw i8, ptr %35, i64 72
  %37 = load i32, ptr %36, align 4
  %.not35 = icmp eq i32 %37, 0
  br i1 %.not35, label %39, label %38

38:                                               ; preds = %34
  call void @RenameTypeInternal(i32 noundef %37, ptr noundef %1, i32 noundef %11) #15
  %.pre = load ptr, ptr %8, align 8
  br label %39

39:                                               ; preds = %38, %34
  %40 = phi ptr [ %.pre, %38 ], [ %35, %34 ]
  %41 = getelementptr inbounds nuw i8, ptr %40, i64 115
  %42 = load i8, ptr %41, align 1
  switch i8 %42, label %46 [
    i8 105, label %43
    i8 73, label %43
  ]

43:                                               ; preds = %39, %39
  %44 = call i32 @get_index_constraint(i32 noundef %0) #15
  %.not36 = icmp eq i32 %44, 0
  br i1 %.not36, label %46, label %45

45:                                               ; preds = %43
  call void @RenameConstraintById(i32 noundef %44, ptr noundef %1) #15
  br label %46

46:                                               ; preds = %43, %45, %39
  call void @relation_close(ptr noundef nonnull %7, i32 noundef 0) #15
  call void @llvm.lifetime.end.p0(i64 6, ptr nonnull %5) #15
  ret void
}